#include <math.h>
#include <stdio.h>
#include <stdlib.h>
#include <string.h>
#include <iostream>
using namespace std;

int main()
{
    int m;
    cin >> m;
    int n1, n2, i, j, p1, p2;
    double a, b;
    for(n1 = 3; n1 <= m / 2; n1 += 2)
    {
        n2 = m - n1;
        a = sqrt(n1);
        b = sqrt(n2);
		//cout << a << b <<endl;
        for(i = 2; i <= a; i++)
        {
            if(n1 % i == 0)
				break;
        }
        if(i > a )
        {
            p1 = n1;
        }
        else
        {
            continue;
        }
        for(j = 2; j <= b; j++)
        {
            if(n2 % j == 0)
				break;
        }
		if(j > b )
		{
			p2 = n2;
		}
		else
		{
			continue;
		}
		cout << p1 << " " << p2 << endl;
    }
    return 0;
}